target datalayout = "e-m:e-p270:32:32-p271:32:32-p272:64:64-i64:64-i128:128-f80:128-n8:16:32:64-S128"
target triple = "x86_64-pc-linux-gnu"

%struct.lua_TValue = type { %union.Value, [1 x i32], i32 }
%union.Value = type { ptr }
%struct.lua_State = type { i8, i8, i8, i8, i8, i8, i8, ptr, ptr, ptr, ptr, ptr, ptr, ptr, ptr, i32, i32, i16, i16, i32, ptr, ptr, ptr, ptr, ptr }
%struct.global_State = type { %struct.stringtable, ptr, ptr, i8, i8, ptr, ptr, ptr, i64, i64, i32, i32, i32, [40 x ptr], [40 x ptr], ptr, ptr, ptr, [256 x i64], ptr, %struct.UpVal, [11 x ptr], [11 x ptr], [21 x ptr], %struct.lua_TValue, %struct.lua_TValue, i32, ptr, i64, [4 x i64], %struct.lua_Callbacks, %struct.lua_ExecutionCallbacks, [128 x ptr], [128 x ptr], [128 x ptr], %struct.GCStats }
%struct.stringtable = type { ptr, i32, i32 }
%struct.UpVal = type { i8, i8, i8, i8, ptr, %union.anon }
%union.anon = type { %struct.anon }
%struct.anon = type { ptr, ptr, ptr }
%struct.lua_Callbacks = type { ptr, ptr, ptr, ptr, ptr, ptr, ptr, ptr, ptr, ptr }
%struct.lua_ExecutionCallbacks = type { ptr, ptr, ptr, ptr, ptr, ptr, ptr }
%struct.GCStats = type { [32 x i32], i32, i32, i64, i64, i64, double, double, double }

@.str = private unnamed_addr constant [5 x i8] c"true\00", align 1
@.str.1 = private unnamed_addr constant [6 x i8] c"false\00", align 1

; Function Attrs: mustprogress uwtable
define internal noundef i32 @_ZL14luauF_tostringP9lua_StateP10lua_TValueS2_iS2_i(ptr noundef %0, ptr noundef %1, ptr noundef %2, i32 noundef %3, ptr noundef %4, i32 noundef %5) #3 {
  %7 = alloca i32, align 4
  %8 = alloca ptr, align 8
  %9 = alloca ptr, align 8
  %10 = alloca ptr, align 8
  %11 = alloca i32, align 4
  %12 = alloca ptr, align 8
  %13 = alloca i32, align 4
  %14 = alloca ptr, align 8
  %15 = alloca ptr, align 8
  %16 = alloca ptr, align 8
  %17 = alloca ptr, align 8
  %18 = alloca [48 x i8], align 16
  %19 = alloca ptr, align 8
  %20 = alloca ptr, align 8
  %21 = alloca ptr, align 8
  store ptr %0, ptr %8, align 8, !tbaa !4
  store ptr %1, ptr %9, align 8, !tbaa !9
  store ptr %2, ptr %10, align 8, !tbaa !9
  store i32 %3, ptr %11, align 4, !tbaa !11
  store ptr %4, ptr %12, align 8, !tbaa !9
  store i32 %5, ptr %13, align 4, !tbaa !11
  %22 = load i32, ptr %13, align 4, !tbaa !11
  %23 = icmp sge i32 %22, 1
  br i1 %23, label %24, label %105

24:                                               ; preds = %6
  %25 = load i32, ptr %11, align 4, !tbaa !11
  %26 = icmp sle i32 %25, 1
  br i1 %26, label %27, label %105

27:                                               ; preds = %24
  %28 = load ptr, ptr %10, align 8, !tbaa !9
  %29 = getelementptr inbounds nuw %struct.lua_TValue, ptr %28, i32 0, i32 2
  %30 = load i32, ptr %29, align 4, !tbaa !13
  switch i32 %30, label %104 [
    i32 0, label %31
    i32 1, label %44
    i32 3, label %63
    i32 5, label %95
  ]

31:                                               ; preds = %27
  call void @llvm.lifetime.start.p0(i64 8, ptr %14) #17
  %32 = load ptr, ptr %8, align 8, !tbaa !4
  %33 = getelementptr inbounds nuw %struct.lua_State, ptr %32, i32 0, i32 9
  %34 = load ptr, ptr %33, align 8, !tbaa !27
  %35 = getelementptr inbounds nuw %struct.global_State, ptr %34, i32 0, i32 22
  %36 = getelementptr inbounds nuw [11 x ptr], ptr %35, i64 0, i64 0
  %37 = load ptr, ptr %36, align 8, !tbaa !37
  store ptr %37, ptr %14, align 8, !tbaa !37
  call void @llvm.lifetime.start.p0(i64 8, ptr %15) #17
  %38 = load ptr, ptr %9, align 8, !tbaa !9
  store ptr %38, ptr %15, align 8, !tbaa !9
  %39 = load ptr, ptr %14, align 8, !tbaa !37
  %40 = load ptr, ptr %15, align 8, !tbaa !9
  %41 = getelementptr inbounds nuw %struct.lua_TValue, ptr %40, i32 0, i32 0
  store ptr %39, ptr %41, align 8, !tbaa !15
  %42 = load ptr, ptr %15, align 8, !tbaa !9
  %43 = getelementptr inbounds nuw %struct.lua_TValue, ptr %42, i32 0, i32 2
  store i32 5, ptr %43, align 4, !tbaa !13
  call void @llvm.lifetime.end.p0(i64 8, ptr %15) #17
  store i32 1, ptr %7, align 4
  call void @llvm.lifetime.end.p0(i64 8, ptr %14) #17
  br label %106

44:                                               ; preds = %27
  call void @llvm.lifetime.start.p0(i64 8, ptr %16) #17
  %45 = load ptr, ptr %10, align 8, !tbaa !9
  %46 = getelementptr inbounds nuw %struct.lua_TValue, ptr %45, i32 0, i32 0
  %47 = load i32, ptr %46, align 8, !tbaa !15
  %48 = icmp ne i32 %47, 0
  br i1 %48, label %49, label %52

49:                                               ; preds = %44
  %50 = load ptr, ptr %8, align 8, !tbaa !4
  %51 = call noundef ptr @_Z12luaS_newlstrP9lua_StatePKcm(ptr noundef %50, ptr noundef @.str, i64 noundef 4)
  br label %55

52:                                               ; preds = %44
  %53 = load ptr, ptr %8, align 8, !tbaa !4
  %54 = call noundef ptr @_Z12luaS_newlstrP9lua_StatePKcm(ptr noundef %53, ptr noundef @.str.1, i64 noundef 5)
  br label %55

55:                                               ; preds = %52, %49
  %56 = phi ptr [ %51, %49 ], [ %54, %52 ]
  store ptr %56, ptr %16, align 8, !tbaa !37
  call void @llvm.lifetime.start.p0(i64 8, ptr %17) #17
  %57 = load ptr, ptr %9, align 8, !tbaa !9
  store ptr %57, ptr %17, align 8, !tbaa !9
  %58 = load ptr, ptr %16, align 8, !tbaa !37
  %59 = load ptr, ptr %17, align 8, !tbaa !9
  %60 = getelementptr inbounds nuw %struct.lua_TValue, ptr %59, i32 0, i32 0
  store ptr %58, ptr %60, align 8, !tbaa !15
  %61 = load ptr, ptr %17, align 8, !tbaa !9
  %62 = getelementptr inbounds nuw %struct.lua_TValue, ptr %61, i32 0, i32 2
  store i32 5, ptr %62, align 4, !tbaa !13
  call void @llvm.lifetime.end.p0(i64 8, ptr %17) #17
  store i32 1, ptr %7, align 4
  call void @llvm.lifetime.end.p0(i64 8, ptr %16) #17
  br label %106

63:                                               ; preds = %27
  %64 = load ptr, ptr %8, align 8, !tbaa !4
  %65 = getelementptr inbounds nuw %struct.lua_State, ptr %64, i32 0, i32 9
  %66 = load ptr, ptr %65, align 8, !tbaa !27
  %67 = getelementptr inbounds nuw %struct.global_State, ptr %66, i32 0, i32 9
  %68 = load i64, ptr %67, align 8, !tbaa !43
  %69 = load ptr, ptr %8, align 8, !tbaa !4
  %70 = getelementptr inbounds nuw %struct.lua_State, ptr %69, i32 0, i32 9
  %71 = load ptr, ptr %70, align 8, !tbaa !27
  %72 = getelementptr inbounds nuw %struct.global_State, ptr %71, i32 0, i32 8
  %73 = load i64, ptr %72, align 8, !tbaa !55
  %74 = icmp uge i64 %68, %73
  br i1 %74, label %75, label %76

75:                                               ; preds = %63
  store i32 -1, ptr %7, align 4
  br label %106

76:                                               ; preds = %63
  call void @llvm.lifetime.start.p0(i64 48, ptr %18) #17
  call void @llvm.lifetime.start.p0(i64 8, ptr %19) #17
  %77 = getelementptr inbounds [48 x i8], ptr %18, i64 0, i64 0
  %78 = load ptr, ptr %10, align 8, !tbaa !9
  %79 = getelementptr inbounds nuw %struct.lua_TValue, ptr %78, i32 0, i32 0
  %80 = load double, ptr %79, align 8, !tbaa !15
  %81 = call noundef ptr @_Z12luai_num2strPcd(ptr noundef %77, double noundef %80)
  store ptr %81, ptr %19, align 8, !tbaa !40
  call void @llvm.lifetime.start.p0(i64 8, ptr %20) #17
  %82 = load ptr, ptr %9, align 8, !tbaa !9
  store ptr %82, ptr %20, align 8, !tbaa !9
  %83 = load ptr, ptr %8, align 8, !tbaa !4
  %84 = getelementptr inbounds [48 x i8], ptr %18, i64 0, i64 0
  %85 = load ptr, ptr %19, align 8, !tbaa !40
  %86 = getelementptr inbounds [48 x i8], ptr %18, i64 0, i64 0
  %87 = ptrtoint ptr %85 to i64
  %88 = ptrtoint ptr %86 to i64
  %89 = sub i64 %87, %88
  %90 = call noundef ptr @_Z12luaS_newlstrP9lua_StatePKcm(ptr noundef %83, ptr noundef %84, i64 noundef %89)
  %91 = load ptr, ptr %20, align 8, !tbaa !9
  %92 = getelementptr inbounds nuw %struct.lua_TValue, ptr %91, i32 0, i32 0
  store ptr %90, ptr %92, align 8, !tbaa !15
  %93 = load ptr, ptr %20, align 8, !tbaa !9
  %94 = getelementptr inbounds nuw %struct.lua_TValue, ptr %93, i32 0, i32 2
  store i32 5, ptr %94, align 4, !tbaa !13
  call void @llvm.lifetime.end.p0(i64 8, ptr %20) #17
  store i32 1, ptr %7, align 4
  call void @llvm.lifetime.end.p0(i64 8, ptr %19) #17
  call void @llvm.lifetime.end.p0(i64 48, ptr %18) #17
  br label %106

95:                                               ; preds = %27
  call void @llvm.lifetime.start.p0(i64 8, ptr %21) #17
  %96 = load ptr, ptr %9, align 8, !tbaa !9
  store ptr %96, ptr %21, align 8, !tbaa !9
  %97 = load ptr, ptr %10, align 8, !tbaa !9
  %98 = getelementptr inbounds nuw %struct.lua_TValue, ptr %97, i32 0, i32 0
  %99 = load ptr, ptr %98, align 8, !tbaa !15
  %100 = load ptr, ptr %21, align 8, !tbaa !9
  %101 = getelementptr inbounds nuw %struct.lua_TValue, ptr %100, i32 0, i32 0
  store ptr %99, ptr %101, align 8, !tbaa !15
  %102 = load ptr, ptr %21, align 8, !tbaa !9
  %103 = getelementptr inbounds nuw %struct.lua_TValue, ptr %102, i32 0, i32 2
  store i32 5, ptr %103, align 4, !tbaa !13
  call void @llvm.lifetime.end.p0(i64 8, ptr %21) #17
  store i32 1, ptr %7, align 4
  br label %106

104:                                              ; preds = %27
  br label %105

105:                                              ; preds = %104, %24, %6
  store i32 -1, ptr %7, align 4
  br label %106

106:                                              ; preds = %105, %95, %76, %75, %55, %31
  %107 = load i32, ptr %7, align 4
  ret i32 %107
}