; Function Attrs: mustprogress uwtable
define internal noundef range(i32 -1, 2) i32 @_ZL14luauF_tostringP9lua_StateP10lua_TValueS2_iS2_i(ptr noundef %0, ptr noundef writeonly captures(none) %1, ptr noundef readonly captures(none) %2, i32 noundef %3, ptr readnone captures(none) %4, i32 noundef %5) #8 {
  %7 = alloca [48 x i8], align 16
  %8 = icmp sgt i32 %5, 0
  %9 = icmp slt i32 %3, 2
  %or.cond = and i1 %9, %8
  br i1 %or.cond, label %10, label %46

10:                                               ; preds = %6
  %11 = getelementptr inbounds nuw i8, ptr %2, i64 12
  %12 = load i32, ptr %11, align 4, !tbaa !4
  switch i32 %12, label %46 [
    i32 0, label %13
    i32 1, label %19
    i32 3, label %28
    i32 5, label %43
  ]

13:                                               ; preds = %10
  %14 = getelementptr inbounds nuw i8, ptr %0, i64 24
  %15 = load ptr, ptr %14, align 8, !tbaa !20
  %16 = getelementptr inbounds nuw i8, ptr %15, i64 2944
  %17 = load ptr, ptr %16, align 8, !tbaa !32
  store ptr %17, ptr %1, align 8, !tbaa !9
  %18 = getelementptr inbounds nuw i8, ptr %1, i64 12
  store i32 5, ptr %18, align 4, !tbaa !4
  br label %46

19:                                               ; preds = %10
  %20 = load i32, ptr %2, align 8, !tbaa !9
  %.not28 = icmp eq i32 %20, 0
  br i1 %.not28, label %23, label %21

21:                                               ; preds = %19
  %22 = tail call noundef ptr @_Z12luaS_newlstrP9lua_StatePKcm(ptr noundef %0, ptr noundef nonnull @.str, i64 noundef 4)
  br label %25

23:                                               ; preds = %19
  %24 = tail call noundef ptr @_Z12luaS_newlstrP9lua_StatePKcm(ptr noundef %0, ptr noundef nonnull @.str.1, i64 noundef 5)
  br label %25

25:                                               ; preds = %23, %21
  %26 = phi ptr [ %22, %21 ], [ %24, %23 ]
  store ptr %26, ptr %1, align 8, !tbaa !9
  %27 = getelementptr inbounds nuw i8, ptr %1, i64 12
  store i32 5, ptr %27, align 4, !tbaa !4
  br label %46

28:                                               ; preds = %10
  %29 = getelementptr inbounds nuw i8, ptr %0, i64 24
  %30 = load ptr, ptr %29, align 8, !tbaa !20
  %31 = getelementptr inbounds nuw i8, ptr %30, i64 72
  %32 = load i64, ptr %31, align 8, !tbaa !36
  %33 = getelementptr inbounds nuw i8, ptr %30, i64 64
  %34 = load i64, ptr %33, align 8, !tbaa !49
  %.not = icmp ult i64 %32, %34
  br i1 %.not, label %35, label %46

35:                                               ; preds = %28
  call void @llvm.lifetime.start.p0(i64 48, ptr nonnull %7) #21
  %36 = load double, ptr %2, align 8, !tbaa !9
  %37 = call noundef ptr @_Z12luai_num2strPcd(ptr noundef nonnull %7, double noundef %36)
  %38 = ptrtoint ptr %37 to i64
  %39 = ptrtoint ptr %7 to i64
  %40 = sub i64 %38, %39
  %41 = call noundef ptr @_Z12luaS_newlstrP9lua_StatePKcm(ptr noundef nonnull %0, ptr noundef nonnull %7, i64 noundef %40)
  store ptr %41, ptr %1, align 8, !tbaa !9
  %42 = getelementptr inbounds nuw i8, ptr %1, i64 12
  store i32 5, ptr %42, align 4, !tbaa !4
  call void @llvm.lifetime.end.p0(i64 48, ptr nonnull %7) #21
  br label %46

43:                                               ; preds = %10
  %44 = load ptr, ptr %2, align 8, !tbaa !9
  store ptr %44, ptr %1, align 8, !tbaa !9
  %45 = getelementptr inbounds nuw i8, ptr %1, i64 12
  store i32 5, ptr %45, align 4, !tbaa !4
  br label %46

46:                                               ; preds = %6, %10, %28, %43, %35, %25, %13
  %.0 = phi i32 [ 1, %43 ], [ 1, %35 ], [ 1, %25 ], [ 1, %13 ], [ -1, %28 ], [ -1, %10 ], [ -1, %6 ]
  ret i32 %.0
}